; Function Attrs: mustprogress uwtable
define dso_local void @_ZN3igl7BBWData5printEv(ptr noundef nonnull align 8 dereferenceable(68) %0) local_unnamed_addr #1 align 2 {
  %2 = tail call noundef nonnull align 8 dereferenceable(8) ptr @_ZSt16__ostream_insertIcSt11char_traitsIcEERSt13basic_ostreamIT_T0_ES6_PKS3_l(ptr noundef nonnull align 8 dereferenceable(8) @_ZSt4cout, ptr noundef nonnull @.str, i64 noundef 17)
  %3 = load i8, ptr %0, align 8, !tbaa !4, !range !24, !noundef !25
  %4 = trunc nuw i8 %3 to i1
  %5 = tail call noundef nonnull align 8 dereferenceable(8) ptr @_ZNSo9_M_insertIbEERSoT_(ptr noundef nonnull align 8 dereferenceable(8) @_ZSt4cout, i1 noundef zeroext %4)
  %6 = load ptr, ptr %5, align 8, !tbaa !26
  %7 = getelementptr i8, ptr %6, i64 -24
  %8 = load i64, ptr %7, align 8
  %9 = getelementptr inbounds i8, ptr %5, i64 %8
  %10 = getelementptr inbounds nuw i8, ptr %9, i64 240
  %11 = load ptr, ptr %10, align 8, !tbaa !28
  %.not.i.i.i = icmp eq ptr %11, null
  br i1 %.not.i.i.i, label %12, label %_ZSt13__check_facetISt5ctypeIcEERKT_PS3_.exit.i.i

12:                                               ; preds = %1
  tail call void @_ZSt16__throw_bad_castv() #23
  unreachable

_ZSt13__check_facetISt5ctypeIcEERKT_PS3_.exit.i.i: ; preds = %1
  %13 = getelementptr inbounds nuw i8, ptr %11, i64 56
  %14 = load i8, ptr %13, align 8, !tbaa !43
  %.not.i1.i.i = icmp eq i8 %14, 0
  br i1 %.not.i1.i.i, label %18, label %15

15:                                               ; preds = %_ZSt13__check_facetISt5ctypeIcEERKT_PS3_.exit.i.i
  %16 = getelementptr inbounds nuw i8, ptr %11, i64 67
  %17 = load i8, ptr %16, align 1, !tbaa !49
  br label %_ZSt4endlIcSt11char_traitsIcEERSt13basic_ostreamIT_T0_ES6_.exit

18:                                               ; preds = %_ZSt13__check_facetISt5ctypeIcEERKT_PS3_.exit.i.i
  tail call void @_ZNKSt5ctypeIcE13_M_widen_initEv(ptr noundef nonnull align 8 dereferenceable(570) %11)
  %19 = load ptr, ptr %11, align 8, !tbaa !26
  %20 = getelementptr inbounds nuw i8, ptr %19, i64 48
  %21 = load ptr, ptr %20, align 8
  %22 = tail call noundef signext i8 %21(ptr noundef nonnull align 8 dereferenceable(570) %11, i8 noundef signext 10)
  br label %_ZSt4endlIcSt11char_traitsIcEERSt13basic_ostreamIT_T0_ES6_.exit

_ZSt4endlIcSt11char_traitsIcEERSt13basic_ostreamIT_T0_ES6_.exit: ; preds = %15, %18
  %.0.i.i.i = phi i8 [ %17, %15 ], [ %22, %18 ]
  %23 = tail call noundef nonnull align 8 dereferenceable(8) ptr @_ZNSo3putEc(ptr noundef nonnull align 8 dereferenceable(8) %5, i8 noundef signext %.0.i.i.i)
  %24 = tail call noundef nonnull align 8 dereferenceable(8) ptr @_ZNSo5flushEv(ptr noundef nonnull align 8 dereferenceable(8) %23)
  %25 = tail call noundef nonnull align 8 dereferenceable(8) ptr @_ZSt16__ostream_insertIcSt11char_traitsIcEERSt13basic_ostreamIT_T0_ES6_PKS3_l(ptr noundef nonnull align 8 dereferenceable(8) @_ZSt4cout, ptr noundef nonnull @.str.3, i64 noundef 4)
  %26 = load ptr, ptr @_ZSt4cout, align 8, !tbaa !26
  %27 = getelementptr i8, ptr %26, i64 -24
  %28 = load i64, ptr %27, align 8
  %29 = getelementptr inbounds i8, ptr @_ZSt4cout, i64 %28
  %30 = getelementptr inbounds nuw i8, ptr %29, i64 240
  %31 = load ptr, ptr %30, align 8, !tbaa !28
  %.not.i.i.i1 = icmp eq ptr %31, null
  br i1 %.not.i.i.i1, label %32, label %_ZSt13__check_facetISt5ctypeIcEERKT_PS3_.exit.i.i2

32:                                               ; preds = %_ZSt4endlIcSt11char_traitsIcEERSt13basic_ostreamIT_T0_ES6_.exit
  tail call void @_ZSt16__throw_bad_castv() #23
  unreachable

_ZSt13__check_facetISt5ctypeIcEERKT_PS3_.exit.i.i2: ; preds = %_ZSt4endlIcSt11char_traitsIcEERSt13basic_ostreamIT_T0_ES6_.exit
  %33 = getelementptr inbounds nuw i8, ptr %31, i64 56
  %34 = load i8, ptr %33, align 8, !tbaa !43
  %.not.i1.i.i3 = icmp eq i8 %34, 0
  br i1 %.not.i1.i.i3, label %38, label %35

35:                                               ; preds = %_ZSt13__check_facetISt5ctypeIcEERKT_PS3_.exit.i.i2
  %36 = getelementptr inbounds nuw i8, ptr %31, i64 67
  %37 = load i8, ptr %36, align 1, !tbaa !49
  br label %_ZSt4endlIcSt11char_traitsIcEERSt13basic_ostreamIT_T0_ES6_.exit5

38:                                               ; preds = %_ZSt13__check_facetISt5ctypeIcEERKT_PS3_.exit.i.i2
  tail call void @_ZNKSt5ctypeIcE13_M_widen_initEv(ptr noundef nonnull align 8 dereferenceable(570) %31)
  %39 = load ptr, ptr %31, align 8, !tbaa !26
  %40 = getelementptr inbounds nuw i8, ptr %39, i64 48
  %41 = load ptr, ptr %40, align 8
  %42 = tail call noundef signext i8 %41(ptr noundef nonnull align 8 dereferenceable(570) %31, i8 noundef signext 10)
  br label %_ZSt4endlIcSt11char_traitsIcEERSt13basic_ostreamIT_T0_ES6_.exit5

_ZSt4endlIcSt11char_traitsIcEERSt13basic_ostreamIT_T0_ES6_.exit5: ; preds = %35, %38
  %.0.i.i.i4 = phi i8 [ %37, %35 ], [ %42, %38 ]
  %43 = tail call noundef nonnull align 8 dereferenceable(8) ptr @_ZNSo3putEc(ptr noundef nonnull align 8 dereferenceable(8) @_ZSt4cout, i8 noundef signext %.0.i.i.i4)
  %44 = tail call noundef nonnull align 8 dereferenceable(8) ptr @_ZNSo5flushEv(ptr noundef nonnull align 8 dereferenceable(8) %43)
  %45 = getelementptr inbounds nuw i8, ptr %0, i64 8
  %46 = tail call noundef nonnull align 8 dereferenceable(8) ptr @_ZN5EigenlsINS_6MatrixIdLin1ELin1ELi0ELin1ELin1EEEEERSoS3_RKNS_9DenseBaseIT_EE(ptr noundef nonnull align 8 dereferenceable(8) %44, ptr noundef nonnull align 1 dereferenceable(1) %45)
  %47 = load ptr, ptr %46, align 8, !tbaa !26
  %48 = getelementptr i8, ptr %47, i64 -24
  %49 = load i64, ptr %48, align 8
  %50 = getelementptr inbounds i8, ptr %46, i64 %49
  %51 = getelementptr inbounds nuw i8, ptr %50, i64 240
  %52 = load ptr, ptr %51, align 8, !tbaa !28
  %.not.i.i.i6 = icmp eq ptr %52, null
  br i1 %.not.i.i.i6, label %53, label %_ZSt13__check_facetISt5ctypeIcEERKT_PS3_.exit.i.i7

53:                                               ; preds = %_ZSt4endlIcSt11char_traitsIcEERSt13basic_ostreamIT_T0_ES6_.exit5
  tail call void @_ZSt16__throw_bad_castv() #23
  unreachable

_ZSt13__check_facetISt5ctypeIcEERKT_PS3_.exit.i.i7: ; preds = %_ZSt4endlIcSt11char_traitsIcEERSt13basic_ostreamIT_T0_ES6_.exit5
  %54 = getelementptr inbounds nuw i8, ptr %52, i64 56
  %55 = load i8, ptr %54, align 8, !tbaa !43
  %.not.i1.i.i8 = icmp eq i8 %55, 0
  br i1 %.not.i1.i.i8, label %59, label %56

56:                                               ; preds = %_ZSt13__check_facetISt5ctypeIcEERKT_PS3_.exit.i.i7
  %57 = getelementptr inbounds nuw i8, ptr %52, i64 67
  %58 = load i8, ptr %57, align 1, !tbaa !49
  br label %_ZSt4endlIcSt11char_traitsIcEERSt13basic_ostreamIT_T0_ES6_.exit10

59:                                               ; preds = %_ZSt13__check_facetISt5ctypeIcEERKT_PS3_.exit.i.i7
  tail call void @_ZNKSt5ctypeIcE13_M_widen_initEv(ptr noundef nonnull align 8 dereferenceable(570) %52)
  %60 = load ptr, ptr %52, align 8, !tbaa !26
  %61 = getelementptr inbounds nuw i8, ptr %60, i64 48
  %62 = load ptr, ptr %61, align 8
  %63 = tail call noundef signext i8 %62(ptr noundef nonnull align 8 dereferenceable(570) %52, i8 noundef signext 10)
  br label %_ZSt4endlIcSt11char_traitsIcEERSt13basic_ostreamIT_T0_ES6_.exit10

_ZSt4endlIcSt11char_traitsIcEERSt13basic_ostreamIT_T0_ES6_.exit10: ; preds = %56, %59
  %.0.i.i.i9 = phi i8 [ %58, %56 ], [ %63, %59 ]
  %64 = tail call noundef nonnull align 8 dereferenceable(8) ptr @_ZNSo3putEc(ptr noundef nonnull align 8 dereferenceable(8) %46, i8 noundef signext %.0.i.i.i9)
  %65 = tail call noundef nonnull align 8 dereferenceable(8) ptr @_ZNSo5flushEv(ptr noundef nonnull align 8 dereferenceable(8) %64)
  %66 = tail call noundef nonnull align 8 dereferenceable(8) ptr @_ZSt16__ostream_insertIcSt11char_traitsIcEERSt13basic_ostreamIT_T0_ES6_PKS3_l(ptr noundef nonnull align 8 dereferenceable(8) %65, ptr noundef nonnull @.str.4, i64 noundef 2)
  %67 = load ptr, ptr %65, align 8, !tbaa !26
  %68 = getelementptr i8, ptr %67, i64 -24
  %69 = load i64, ptr %68, align 8
  %70 = getelementptr inbounds i8, ptr %65, i64 %69
  %71 = getelementptr inbounds nuw i8, ptr %70, i64 240
  %72 = load ptr, ptr %71, align 8, !tbaa !28
  %.not.i.i.i11 = icmp eq ptr %72, null
  br i1 %.not.i.i.i11, label %73, label %_ZSt13__check_facetISt5ctypeIcEERKT_PS3_.exit.i.i12

73:                                               ; preds = %_ZSt4endlIcSt11char_traitsIcEERSt13basic_ostreamIT_T0_ES6_.exit10
  tail call void @_ZSt16__throw_bad_castv() #23
  unreachable

_ZSt13__check_facetISt5ctypeIcEERKT_PS3_.exit.i.i12: ; preds = %_ZSt4endlIcSt11char_traitsIcEERSt13basic_ostreamIT_T0_ES6_.exit10
  %74 = getelementptr inbounds nuw i8, ptr %72, i64 56
  %75 = load i8, ptr %74, align 8, !tbaa !43
  %.not.i1.i.i13 = icmp eq i8 %75, 0
  br i1 %.not.i1.i.i13, label %79, label %76

76:                                               ; preds = %_ZSt13__check_facetISt5ctypeIcEERKT_PS3_.exit.i.i12
  %77 = getelementptr inbounds nuw i8, ptr %72, i64 67
  %78 = load i8, ptr %77, align 1, !tbaa !49
  br label %_ZSt4endlIcSt11char_traitsIcEERSt13basic_ostreamIT_T0_ES6_.exit15

79:                                               ; preds = %_ZSt13__check_facetISt5ctypeIcEERKT_PS3_.exit.i.i12
  tail call void @_ZNKSt5ctypeIcE13_M_widen_initEv(ptr noundef nonnull align 8 dereferenceable(570) %72)
  %80 = load ptr, ptr %72, align 8, !tbaa !26
  %81 = getelementptr inbounds nuw i8, ptr %80, i64 48
  %82 = load ptr, ptr %81, align 8
  %83 = tail call noundef signext i8 %82(ptr noundef nonnull align 8 dereferenceable(570) %72, i8 noundef signext 10)
  br label %_ZSt4endlIcSt11char_traitsIcEERSt13basic_ostreamIT_T0_ES6_.exit15

_ZSt4endlIcSt11char_traitsIcEERSt13basic_ostreamIT_T0_ES6_.exit15: ; preds = %76, %79
  %.0.i.i.i14 = phi i8 [ %78, %76 ], [ %83, %79 ]
  %84 = tail call noundef nonnull align 8 dereferenceable(8) ptr @_ZNSo3putEc(ptr noundef nonnull align 8 dereferenceable(8) %65, i8 noundef signext %.0.i.i.i14)
  %85 = tail call noundef nonnull align 8 dereferenceable(8) ptr @_ZNSo5flushEv(ptr noundef nonnull align 8 dereferenceable(8) %84)
  ret void
}